target datalayout = "e-m:e-p270:32:32-p271:32:32-p272:64:64-i64:64-i128:128-f80:128-n8:16:32:64-S128"
target triple = "x86_64-pc-linux-gnu"

%struct.Llb_Mgr_t_ = type { ptr, ptr, i32, ptr, ptr, i32, i32, i32, ptr }
%struct.Llb_Var_t_ = type { i32, i32, ptr }
%struct.Vec_Int_t_ = type { i32, i32, ptr }
%struct.Llb_Prt_t_ = type { i32, i32, ptr, ptr }
%struct.DdManager = type { %struct.DdNode, ptr, ptr, ptr, ptr, ptr, ptr, ptr, i32, i32, double, double, double, i32, i32, i32, i32, i32, i32, ptr, ptr, %struct.DdSubtable, i32, i32, i32, i32, i32, i32, i32, double, i32, i32, i32, ptr, i64, double, i32, ptr, ptr, ptr, ptr, ptr, ptr, ptr, i32, ptr, ptr, ptr, ptr, ptr, ptr, i32, i32, i32, double, i32, i32, i32, i32, double, double, i32, i32, i32, i32, i32, i32, i32, i32, i32, ptr, ptr, i32, i32, i32, i32, i32, i32, ptr, ptr, ptr, ptr, ptr, ptr, ptr, ptr, i32, i64, i64, i64, i32, i64, i64, double, double, double, double, double, double, i32, ptr, ptr, i64 }
%struct.DdNode = type { i32, i32, ptr, %union.anon, i64 }
%union.anon = type { %struct.DdChildren }
%struct.DdChildren = type { ptr, ptr }
%struct.DdSubtable = type { ptr, i32, i32, i32, i32, i32, i32, i32, i32, i32, i32, i32 }

; Function Attrs: inlinehint nounwind uwtable
define internal ptr @Llb_MgrVar(ptr noundef %0, i32 noundef %1) #1 {
  %3 = alloca ptr, align 8
  %4 = alloca i32, align 4
  store ptr %0, ptr %3, align 8, !tbaa !3
  store i32 %1, ptr %4, align 4, !tbaa !50
  %5 = load ptr, ptr %3, align 8, !tbaa !3
  %6 = getelementptr inbounds nuw %struct.Llb_Mgr_t_, ptr %5, i32 0, i32 4
  %7 = load ptr, ptr %6, align 8, !tbaa !10
  %8 = load i32, ptr %4, align 4, !tbaa !50
  %9 = sext i32 %8 to i64
  %10 = getelementptr inbounds ptr, ptr %7, i64 %9
  %11 = load ptr, ptr %10, align 8, !tbaa !8
  ret ptr %11
}

; Function Attrs: inlinehint nounwind uwtable
define internal i32 @Vec_IntEntry(ptr noundef %0, i32 noundef %1) #1 {
  %3 = alloca ptr, align 8
  %4 = alloca i32, align 4
  store ptr %0, ptr %3, align 8, !tbaa !21
  store i32 %1, ptr %4, align 4, !tbaa !50
  %5 = load ptr, ptr %3, align 8, !tbaa !21
  %6 = getelementptr inbounds nuw %struct.Vec_Int_t_, ptr %5, i32 0, i32 2
  %7 = load ptr, ptr %6, align 8, !tbaa !22
  %8 = load i32, ptr %4, align 4, !tbaa !50
  %9 = sext i32 %8 to i64
  %10 = getelementptr inbounds i32, ptr %7, i64 %9
  %11 = load i32, ptr %10, align 4, !tbaa !50
  ret i32 %11
}

; Function Attrs: inlinehint nounwind uwtable
define internal i32 @Vec_IntSize(ptr noundef %0) #1 {
  %2 = alloca ptr, align 8
  store ptr %0, ptr %2, align 8, !tbaa !21
  %3 = load ptr, ptr %2, align 8, !tbaa !21
  %4 = getelementptr inbounds nuw %struct.Vec_Int_t_, ptr %3, i32 0, i32 1
  %5 = load i32, ptr %4, align 4, !tbaa !53
  ret i32 %5
}

; Function Attrs: nounwind uwtable
define ptr @Llb_Nonlin4CreateCube2(ptr noundef %0, ptr noundef %1, ptr noundef %2) #0 {
  %4 = alloca ptr, align 8
  %5 = alloca ptr, align 8
  %6 = alloca ptr, align 8
  %7 = alloca ptr, align 8
  %8 = alloca ptr, align 8
  %9 = alloca ptr, align 8
  %10 = alloca i32, align 4
  %11 = alloca i64, align 8
  store ptr %0, ptr %4, align 8, !tbaa !3
  store ptr %1, ptr %5, align 8, !tbaa !24
  store ptr %2, ptr %6, align 8, !tbaa !24
  call void @llvm.lifetime.start.p0(i64 8, ptr %7) #8
  call void @llvm.lifetime.start.p0(i64 8, ptr %8) #8
  call void @llvm.lifetime.start.p0(i64 8, ptr %9) #8
  call void @llvm.lifetime.start.p0(i64 4, ptr %10) #8
  call void @llvm.lifetime.start.p0(i64 8, ptr %11) #8
  %12 = load ptr, ptr %4, align 8, !tbaa !3
  %13 = getelementptr inbounds nuw %struct.Llb_Mgr_t_, ptr %12, i32 0, i32 0
  %14 = load ptr, ptr %13, align 8, !tbaa !31
  %15 = getelementptr inbounds nuw %struct.DdManager, ptr %14, i32 0, i32 102
  %16 = load i64, ptr %15, align 8, !tbaa !33
  store i64 %16, ptr %11, align 8, !tbaa !48
  %17 = load ptr, ptr %4, align 8, !tbaa !3
  %18 = getelementptr inbounds nuw %struct.Llb_Mgr_t_, ptr %17, i32 0, i32 0
  %19 = load ptr, ptr %18, align 8, !tbaa !31
  %20 = getelementptr inbounds nuw %struct.DdManager, ptr %19, i32 0, i32 102
  store i64 0, ptr %20, align 8, !tbaa !33
  %21 = load ptr, ptr %4, align 8, !tbaa !3
  %22 = getelementptr inbounds nuw %struct.Llb_Mgr_t_, ptr %21, i32 0, i32 0
  %23 = load ptr, ptr %22, align 8, !tbaa !31
  %24 = call ptr @Cudd_ReadOne(ptr noundef %23)
  store ptr %24, ptr %7, align 8, !tbaa !49
  %25 = load ptr, ptr %7, align 8, !tbaa !49
  call void @Cudd_Ref(ptr noundef %25)
  store i32 0, ptr %10, align 4, !tbaa !50
  br label %26

26:                                               ; preds = %105, %3
  %27 = load i32, ptr %10, align 4, !tbaa !50
  %28 = load ptr, ptr %5, align 8, !tbaa !24
  %29 = getelementptr inbounds nuw %struct.Llb_Prt_t_, ptr %28, i32 0, i32 3
  %30 = load ptr, ptr %29, align 8, !tbaa !30
  %31 = call i32 @Vec_IntSize(ptr noundef %30)
  %32 = icmp slt i32 %27, %31
  br i1 %32, label %33, label %41

33:                                               ; preds = %26
  %34 = load ptr, ptr %4, align 8, !tbaa !3
  %35 = load ptr, ptr %5, align 8, !tbaa !24
  %36 = getelementptr inbounds nuw %struct.Llb_Prt_t_, ptr %35, i32 0, i32 3
  %37 = load ptr, ptr %36, align 8, !tbaa !30
  %38 = load i32, ptr %10, align 4, !tbaa !50
  %39 = call i32 @Vec_IntEntry(ptr noundef %37, i32 noundef %38)
  %40 = call ptr @Llb_MgrVar(ptr noundef %34, i32 noundef %39)
  store ptr %40, ptr %9, align 8, !tbaa !8
  br label %41

41:                                               ; preds = %33, %26
  %42 = phi i1 [ false, %26 ], [ true, %33 ]
  br i1 %42, label %43, label %108

43:                                               ; preds = %41
  %44 = load ptr, ptr %9, align 8, !tbaa !8
  %45 = getelementptr inbounds nuw %struct.Llb_Var_t_, ptr %44, i32 0, i32 2
  %46 = load ptr, ptr %45, align 8, !tbaa !20
  %47 = call i32 @Vec_IntSize(ptr noundef %46)
  %48 = icmp ne i32 %47, 2
  br i1 %48, label %49, label %50

49:                                               ; preds = %43
  br label %105

50:                                               ; preds = %43
  %51 = load ptr, ptr %9, align 8, !tbaa !8
  %52 = getelementptr inbounds nuw %struct.Llb_Var_t_, ptr %51, i32 0, i32 2
  %53 = load ptr, ptr %52, align 8, !tbaa !20
  %54 = call i32 @Vec_IntEntry(ptr noundef %53, i32 noundef 0)
  %55 = load ptr, ptr %5, align 8, !tbaa !24
  %56 = getelementptr inbounds nuw %struct.Llb_Prt_t_, ptr %55, i32 0, i32 0
  %57 = load i32, ptr %56, align 8, !tbaa !27
  %58 = icmp eq i32 %54, %57
  br i1 %58, label %59, label %68

59:                                               ; preds = %50
  %60 = load ptr, ptr %9, align 8, !tbaa !8
  %61 = getelementptr inbounds nuw %struct.Llb_Var_t_, ptr %60, i32 0, i32 2
  %62 = load ptr, ptr %61, align 8, !tbaa !20
  %63 = call i32 @Vec_IntEntry(ptr noundef %62, i32 noundef 1)
  %64 = load ptr, ptr %6, align 8, !tbaa !24
  %65 = getelementptr inbounds nuw %struct.Llb_Prt_t_, ptr %64, i32 0, i32 0
  %66 = load i32, ptr %65, align 8, !tbaa !27
  %67 = icmp eq i32 %63, %66
  br i1 %67, label %86, label %68

68:                                               ; preds = %59, %50
  %69 = load ptr, ptr %9, align 8, !tbaa !8
  %70 = getelementptr inbounds nuw %struct.Llb_Var_t_, ptr %69, i32 0, i32 2
  %71 = load ptr, ptr %70, align 8, !tbaa !20
  %72 = call i32 @Vec_IntEntry(ptr noundef %71, i32 noundef 0)
  %73 = load ptr, ptr %6, align 8, !tbaa !24
  %74 = getelementptr inbounds nuw %struct.Llb_Prt_t_, ptr %73, i32 0, i32 0
  %75 = load i32, ptr %74, align 8, !tbaa !27
  %76 = icmp eq i32 %72, %75
  br i1 %76, label %77, label %104

77:                                               ; preds = %68
  %78 = load ptr, ptr %9, align 8, !tbaa !8
  %79 = getelementptr inbounds nuw %struct.Llb_Var_t_, ptr %78, i32 0, i32 2
  %80 = load ptr, ptr %79, align 8, !tbaa !20
  %81 = call i32 @Vec_IntEntry(ptr noundef %80, i32 noundef 1)
  %82 = load ptr, ptr %5, align 8, !tbaa !24
  %83 = getelementptr inbounds nuw %struct.Llb_Prt_t_, ptr %82, i32 0, i32 0
  %84 = load i32, ptr %83, align 8, !tbaa !27
  %85 = icmp eq i32 %81, %84
  br i1 %85, label %86, label %104

86:                                               ; preds = %77, %59
  %87 = load ptr, ptr %4, align 8, !tbaa !3
  %88 = getelementptr inbounds nuw %struct.Llb_Mgr_t_, ptr %87, i32 0, i32 0
  %89 = load ptr, ptr %88, align 8, !tbaa !31
  %90 = load ptr, ptr %7, align 8, !tbaa !49
  store ptr %90, ptr %8, align 8, !tbaa !49
  %91 = load ptr, ptr %4, align 8, !tbaa !3
  %92 = getelementptr inbounds nuw %struct.Llb_Mgr_t_, ptr %91, i32 0, i32 0
  %93 = load ptr, ptr %92, align 8, !tbaa !31
  %94 = load ptr, ptr %9, align 8, !tbaa !8
  %95 = getelementptr inbounds nuw %struct.Llb_Var_t_, ptr %94, i32 0, i32 0
  %96 = load i32, ptr %95, align 8, !tbaa !18
  %97 = call ptr @Cudd_bddIthVar(ptr noundef %93, i32 noundef %96)
  %98 = call ptr @Cudd_bddAnd(ptr noundef %89, ptr noundef %90, ptr noundef %97)
  store ptr %98, ptr %7, align 8, !tbaa !49
  %99 = load ptr, ptr %7, align 8, !tbaa !49
  call void @Cudd_Ref(ptr noundef %99)
  %100 = load ptr, ptr %4, align 8, !tbaa !3
  %101 = getelementptr inbounds nuw %struct.Llb_Mgr_t_, ptr %100, i32 0, i32 0
  %102 = load ptr, ptr %101, align 8, !tbaa !31
  %103 = load ptr, ptr %8, align 8, !tbaa !49
  call void @Cudd_RecursiveDeref(ptr noundef %102, ptr noundef %103)
  br label %104

104:                                              ; preds = %86, %77, %68
  br label %105

105:                                              ; preds = %104, %49
  %106 = load i32, ptr %10, align 4, !tbaa !50
  %107 = add nsw i32 %106, 1
  store i32 %107, ptr %10, align 4, !tbaa !50
  br label %26, !llvm.loop !54

108:                                              ; preds = %41
  %109 = load ptr, ptr %7, align 8, !tbaa !49
  call void @Cudd_Deref(ptr noundef %109)
  %110 = load i64, ptr %11, align 8, !tbaa !48
  %111 = load ptr, ptr %4, align 8, !tbaa !3
  %112 = getelementptr inbounds nuw %struct.Llb_Mgr_t_, ptr %111, i32 0, i32 0
  %113 = load ptr, ptr %112, align 8, !tbaa !31
  %114 = getelementptr inbounds nuw %struct.DdManager, ptr %113, i32 0, i32 102
  store i64 %110, ptr %114, align 8, !tbaa !33
  %115 = load ptr, ptr %7, align 8, !tbaa !49
  call void @llvm.lifetime.end.p0(i64 8, ptr %11) #8
  call void @llvm.lifetime.end.p0(i64 4, ptr %10) #8
  call void @llvm.lifetime.end.p0(i64 8, ptr %9) #8
  call void @llvm.lifetime.end.p0(i64 8, ptr %8) #8
  call void @llvm.lifetime.end.p0(i64 8, ptr %7) #8
  ret ptr %115
}