; Function Attrs: nounwind uwtable
define noundef ptr @Llb_Nonlin4CreateCube2(ptr noundef readonly captures(none) %0, ptr noundef readonly captures(none) %1, ptr noundef readonly captures(none) %2) local_unnamed_addr #2 {
  %4 = load ptr, ptr %0, align 8, !tbaa !28
  %5 = getelementptr inbounds nuw i8, ptr %4, i64 752
  %6 = load i64, ptr %5, align 8, !tbaa !30
  store i64 0, ptr %5, align 8, !tbaa !30
  %7 = tail call ptr @Cudd_ReadOne(ptr noundef %4) #14
  tail call void @Cudd_Ref(ptr noundef %7) #14
  %8 = getelementptr inbounds nuw i8, ptr %1, i64 16
  %9 = load ptr, ptr %8, align 8, !tbaa !27
  %10 = getelementptr i8, ptr %9, i64 4
  %.val3037 = load i32, ptr %10, align 4, !tbaa !45
  %11 = icmp sgt i32 %.val3037, 0
  br i1 %11, label %.lr.ph, label %.critedge

.lr.ph:                                           ; preds = %3
  %12 = getelementptr i8, ptr %0, i64 32
  br label %13

13:                                               ; preds = %.lr.ph, %45
  %14 = phi ptr [ %9, %.lr.ph ], [ %46, %45 ]
  %indvars.iv = phi i64 [ 0, %.lr.ph ], [ %indvars.iv.next, %45 ]
  %.039 = phi ptr [ %7, %.lr.ph ], [ %.1, %45 ]
  %15 = getelementptr i8, ptr %14, i64 8
  %.val35 = load ptr, ptr %15, align 8, !tbaa !19
  %16 = getelementptr inbounds nuw i32, ptr %.val35, i64 %indvars.iv
  %17 = load i32, ptr %16, align 4, !tbaa !46
  %.val36 = load ptr, ptr %12, align 8, !tbaa !3
  %18 = sext i32 %17 to i64
  %19 = getelementptr inbounds ptr, ptr %.val36, i64 %18
  %20 = load ptr, ptr %19, align 8, !tbaa !16
  %21 = getelementptr inbounds nuw i8, ptr %20, i64 8
  %22 = load ptr, ptr %21, align 8, !tbaa !18
  %23 = getelementptr i8, ptr %22, i64 4
  %.val = load i32, ptr %23, align 4, !tbaa !45
  %.not = icmp eq i32 %.val, 2
  br i1 %.not, label %24, label %45

24:                                               ; preds = %13
  %25 = getelementptr i8, ptr %22, i64 8
  %.val34 = load ptr, ptr %25, align 8, !tbaa !19
  %26 = load i32, ptr %.val34, align 4, !tbaa !46
  %27 = load i32, ptr %1, align 8, !tbaa !22
  %28 = icmp eq i32 %26, %27
  %.pre = load i32, ptr %2, align 8, !tbaa !22
  br i1 %28, label %29, label %33

29:                                               ; preds = %24
  %30 = getelementptr inbounds nuw i8, ptr %.val34, i64 4
  %31 = load i32, ptr %30, align 4, !tbaa !46
  %32 = icmp eq i32 %31, %.pre
  br i1 %32, label %39, label %33

33:                                               ; preds = %29, %24
  %34 = icmp eq i32 %26, %.pre
  br i1 %34, label %35, label %45

35:                                               ; preds = %33
  %36 = getelementptr inbounds nuw i8, ptr %.val34, i64 4
  %37 = load i32, ptr %36, align 4, !tbaa !46
  %38 = icmp eq i32 %37, %27
  br i1 %38, label %39, label %45

39:                                               ; preds = %35, %29
  %40 = load ptr, ptr %0, align 8, !tbaa !28
  %41 = load i32, ptr %20, align 8, !tbaa !14
  %42 = tail call ptr @Cudd_bddIthVar(ptr noundef %40, i32 noundef %41) #14
  %43 = tail call ptr @Cudd_bddAnd(ptr noundef %40, ptr noundef %.039, ptr noundef %42) #14
  tail call void @Cudd_Ref(ptr noundef %43) #14
  %44 = load ptr, ptr %0, align 8, !tbaa !28
  tail call void @Cudd_RecursiveDeref(ptr noundef %44, ptr noundef %.039) #14
  %.pre41 = load ptr, ptr %8, align 8, !tbaa !27
  br label %45

45:                                               ; preds = %33, %35, %39, %13
  %46 = phi ptr [ %14, %13 ], [ %.pre41, %39 ], [ %14, %35 ], [ %14, %33 ]
  %.1 = phi ptr [ %.039, %13 ], [ %43, %39 ], [ %.039, %35 ], [ %.039, %33 ]
  %indvars.iv.next = add nuw nsw i64 %indvars.iv, 1
  %47 = getelementptr i8, ptr %46, i64 4
  %.val30 = load i32, ptr %47, align 4, !tbaa !45
  %48 = sext i32 %.val30 to i64
  %49 = icmp slt i64 %indvars.iv.next, %48
  br i1 %49, label %13, label %.critedge, !llvm.loop !49

.critedge:                                        ; preds = %45, %3
  %.0.lcssa = phi ptr [ %7, %3 ], [ %.1, %45 ]
  tail call void @Cudd_Deref(ptr noundef %.0.lcssa) #14
  %50 = load ptr, ptr %0, align 8, !tbaa !28
  %51 = getelementptr inbounds nuw i8, ptr %50, i64 752
  store i64 %6, ptr %51, align 8, !tbaa !30
  ret ptr %.0.lcssa
}